target datalayout = "e-m:e-p270:32:32-p271:32:32-p272:64:64-i64:64-i128:128-f80:128-n8:16:32:64-S128"
target triple = "x86_64-pc-linux-gnu"

%struct._object = type { %union.anon, ptr }
%union.anon = type { i64 }

@_Py_NoneStruct = external global %struct._object, align 8
@.str.59 = private unnamed_addr constant [50 x i8] c"Exception ignored while clearing function watcher\00", align 1

; Function Attrs: nounwind uwtable
define internal ptr @allocate_too_many_func_watchers(ptr noundef %0, ptr noundef %1) #0 {
  %3 = alloca ptr, align 8
  %4 = alloca ptr, align 8
  %5 = alloca ptr, align 8
  %6 = alloca [9 x i32], align 16
  %7 = alloca i32, align 4
  %8 = alloca i64, align 8
  %9 = alloca i32, align 4
  %10 = alloca i32, align 4
  %11 = alloca ptr, align 8
  %12 = alloca i32, align 4
  store ptr %0, ptr %4, align 8, !tbaa !3
  store ptr %1, ptr %5, align 8, !tbaa !3
  call void @llvm.lifetime.start.p0(i64 36, ptr %6) #6
  call void @llvm.lifetime.start.p0(i64 4, ptr %7) #6
  store i32 0, ptr %7, align 4, !tbaa !10
  call void @llvm.lifetime.start.p0(i64 8, ptr %8) #6
  store i64 0, ptr %8, align 8, !tbaa !12
  br label %13

13:                                               ; preds = %31, %2
  %14 = load i64, ptr %8, align 8, !tbaa !12
  %15 = icmp ult i64 %14, 9
  br i1 %15, label %17, label %16

16:                                               ; preds = %13
  store i32 2, ptr %9, align 4
  br label %34

17:                                               ; preds = %13
  call void @llvm.lifetime.start.p0(i64 4, ptr %10) #6
  %18 = call i32 @PyFunction_AddWatcher(ptr noundef @noop_func_event_handler)
  store i32 %18, ptr %10, align 4, !tbaa !10
  %19 = load i32, ptr %10, align 4, !tbaa !10
  %20 = icmp eq i32 %19, -1
  br i1 %20, label %21, label %22

21:                                               ; preds = %17
  store i32 2, ptr %9, align 4
  br label %28

22:                                               ; preds = %17
  %23 = load i32, ptr %10, align 4, !tbaa !10
  %24 = load i64, ptr %8, align 8, !tbaa !12
  %25 = getelementptr [9 x i32], ptr %6, i64 0, i64 %24
  store i32 %23, ptr %25, align 4, !tbaa !10
  %26 = load i32, ptr %7, align 4, !tbaa !10
  %27 = add i32 %26, 1
  store i32 %27, ptr %7, align 4, !tbaa !10
  store i32 0, ptr %9, align 4
  br label %28

28:                                               ; preds = %22, %21
  call void @llvm.lifetime.end.p0(i64 4, ptr %10) #6
  %29 = load i32, ptr %9, align 4
  switch i32 %29, label %34 [
    i32 0, label %30
  ]

30:                                               ; preds = %28
  br label %31

31:                                               ; preds = %30
  %32 = load i64, ptr %8, align 8, !tbaa !12
  %33 = add i64 %32, 1
  store i64 %33, ptr %8, align 8, !tbaa !12
  br label %13, !llvm.loop !23

34:                                               ; preds = %28, %16
  call void @llvm.lifetime.end.p0(i64 8, ptr %8) #6
  br label %35

35:                                               ; preds = %34
  call void @llvm.lifetime.start.p0(i64 8, ptr %11) #6
  %36 = call ptr @PyErr_GetRaisedException()
  store ptr %36, ptr %11, align 8, !tbaa !3
  call void @llvm.lifetime.start.p0(i64 4, ptr %12) #6
  store i32 0, ptr %12, align 4, !tbaa !10
  br label %37

37:                                               ; preds = %51, %35
  %38 = load i32, ptr %12, align 4, !tbaa !10
  %39 = load i32, ptr %7, align 4, !tbaa !10
  %40 = icmp slt i32 %38, %39
  br i1 %40, label %42, label %41

41:                                               ; preds = %37
  store i32 5, ptr %9, align 4
  br label %54

42:                                               ; preds = %37
  %43 = load i32, ptr %12, align 4, !tbaa !10
  %44 = sext i32 %43 to i64
  %45 = getelementptr [9 x i32], ptr %6, i64 0, i64 %44
  %46 = load i32, ptr %45, align 4, !tbaa !10
  %47 = call i32 @PyFunction_ClearWatcher(i32 noundef %46)
  %48 = icmp slt i32 %47, 0
  br i1 %48, label %49, label %50

49:                                               ; preds = %42
  call void (ptr, ...) @PyErr_FormatUnraisable(ptr noundef @.str.59)
  store i32 5, ptr %9, align 4
  br label %54

50:                                               ; preds = %42
  br label %51

51:                                               ; preds = %50
  %52 = load i32, ptr %12, align 4, !tbaa !10
  %53 = add i32 %52, 1
  store i32 %53, ptr %12, align 4, !tbaa !10
  br label %37, !llvm.loop !24

54:                                               ; preds = %49, %41
  call void @llvm.lifetime.end.p0(i64 4, ptr %12) #6
  br label %55

55:                                               ; preds = %54
  %56 = load ptr, ptr %11, align 8, !tbaa !3
  %57 = icmp ne ptr %56, null
  br i1 %57, label %58, label %60

58:                                               ; preds = %55
  %59 = load ptr, ptr %11, align 8, !tbaa !3
  call void @PyErr_SetRaisedException(ptr noundef %59)
  store ptr null, ptr %3, align 8
  store i32 1, ptr %9, align 4
  br label %66

60:                                               ; preds = %55
  %61 = call ptr @PyErr_Occurred()
  %62 = icmp ne ptr %61, null
  br i1 %62, label %63, label %64

63:                                               ; preds = %60
  store ptr null, ptr %3, align 8
  store i32 1, ptr %9, align 4
  br label %66

64:                                               ; preds = %60
  br label %65

65:                                               ; preds = %64
  store ptr @_Py_NoneStruct, ptr %3, align 8
  store i32 1, ptr %9, align 4
  br label %66

66:                                               ; preds = %65, %63, %58
  call void @llvm.lifetime.end.p0(i64 8, ptr %11) #6
  call void @llvm.lifetime.end.p0(i64 4, ptr %7) #6
  call void @llvm.lifetime.end.p0(i64 36, ptr %6) #6
  %67 = load ptr, ptr %3, align 8
  ret ptr %67
}