; Function Attrs: nounwind uwtable
define internal ptr @allocate_too_many_func_watchers(ptr readnone captures(none) %0, ptr readnone captures(none) %1) #0 {
  %3 = alloca [9 x i32], align 16
  call void @llvm.lifetime.start.p0(i64 36, ptr nonnull %3) #6
  br label %4

4:                                                ; preds = %2, %6
  %.01622 = phi i64 [ 0, %2 ], [ %8, %6 ]
  %5 = tail call i32 @PyFunction_AddWatcher(ptr noundef nonnull @noop_func_event_handler) #6
  %.not = icmp eq i32 %5, -1
  br i1 %.not, label %.thread, label %6

6:                                                ; preds = %4
  %7 = getelementptr [9 x i32], ptr %3, i64 0, i64 %.01622
  store i32 %5, ptr %7, align 4, !tbaa !20
  %8 = add nuw nsw i64 %.01622, 1
  %exitcond.not = icmp eq i64 %8, 9
  br i1 %exitcond.not, label %.thread.thread, label %4, !llvm.loop !30

.thread.thread:                                   ; preds = %6
  %9 = tail call ptr @PyErr_GetRaisedException() #6
  br label %.lr.ph.preheader

.thread:                                          ; preds = %4
  %indvars25.le = trunc i64 %.01622 to i32
  %10 = tail call ptr @PyErr_GetRaisedException() #6
  %11 = icmp sgt i32 %indvars25.le, 0
  br i1 %11, label %.lr.ph.preheader, label %.loopexit

.lr.ph.preheader:                                 ; preds = %.thread.thread, %.thread
  %12 = phi ptr [ %9, %.thread.thread ], [ %10, %.thread ]
  %.014.lcssa29 = phi i64 [ 9, %.thread.thread ], [ %.01622, %.thread ]
  %wide.trip.count = and i64 %.014.lcssa29, 4294967295
  br label %.lr.ph

13:                                               ; preds = %.lr.ph
  %indvars.iv.next = add nuw nsw i64 %indvars.iv, 1
  %exitcond27.not = icmp eq i64 %indvars.iv.next, %wide.trip.count
  br i1 %exitcond27.not, label %.loopexit, label %.lr.ph, !llvm.loop !31

.lr.ph:                                           ; preds = %.lr.ph.preheader, %13
  %indvars.iv = phi i64 [ 0, %.lr.ph.preheader ], [ %indvars.iv.next, %13 ]
  %14 = getelementptr [9 x i32], ptr %3, i64 0, i64 %indvars.iv
  %15 = load i32, ptr %14, align 4, !tbaa !20
  %16 = tail call i32 @PyFunction_ClearWatcher(i32 noundef %15) #6
  %17 = icmp slt i32 %16, 0
  br i1 %17, label %18, label %13

18:                                               ; preds = %.lr.ph
  tail call void (ptr, ...) @PyErr_FormatUnraisable(ptr noundef nonnull @.str.59) #6
  br label %.loopexit

.loopexit:                                        ; preds = %13, %.thread, %18
  %19 = phi ptr [ %10, %.thread ], [ %12, %18 ], [ %12, %13 ]
  %.not19 = icmp eq ptr %19, null
  br i1 %.not19, label %21, label %20

20:                                               ; preds = %.loopexit
  tail call void @PyErr_SetRaisedException(ptr noundef nonnull %19) #6
  br label %23

21:                                               ; preds = %.loopexit
  %22 = tail call ptr @PyErr_Occurred() #6
  %.not20 = icmp eq ptr %22, null
  %_Py_NoneStruct. = select i1 %.not20, ptr @_Py_NoneStruct, ptr null
  br label %23

23:                                               ; preds = %21, %20
  %.013 = phi ptr [ null, %20 ], [ %_Py_NoneStruct., %21 ]
  call void @llvm.lifetime.end.p0(i64 36, ptr nonnull %3) #6
  ret ptr %.013
}